; Function Attrs: nounwind uwtable
define ptr @l_Lean_Meta_LazyDiscrTree_findImportMatches___rarg___lambda__1(ptr noundef %0, ptr noundef %1, ptr noundef %2, ptr noundef %3, ptr noundef %4, ptr noundef %5, ptr noundef %6, ptr noundef %7, ptr noundef %8, ptr noundef %9) local_unnamed_addr #1 {
  %11 = tail call ptr @lean_st_ref_get(ptr noundef %8, ptr noundef %9) #6
  %12 = getelementptr inbounds nuw i8, ptr %11, i64 8
  %13 = load ptr, ptr %12, align 8, !tbaa !4
  %14 = ptrtoint ptr %13 to i64
  %15 = and i64 %14, 1
  %.not = icmp eq i64 %15, 0
  br i1 %.not, label %16, label %lean_inc.exit41

16:                                               ; preds = %10
  %.val.i = load i32, ptr %13, align 4, !tbaa !8
  %17 = icmp sgt i32 %.val.i, 0
  br i1 %17, label %18, label %20, !prof !11

18:                                               ; preds = %16
  %19 = add nuw i32 %.val.i, 1
  store i32 %19, ptr %13, align 4, !tbaa !8
  br label %lean_inc.exit41

20:                                               ; preds = %16
  %.not.i46 = icmp eq i32 %.val.i, 0
  br i1 %.not.i46, label %lean_inc.exit41, label %21

21:                                               ; preds = %20
  tail call void @lean_inc_ref_cold(ptr noundef nonnull %13) #6
  br label %lean_inc.exit41

lean_inc.exit41:                                  ; preds = %21, %20, %18, %10
  %22 = getelementptr inbounds nuw i8, ptr %11, i64 16
  %23 = load ptr, ptr %22, align 8, !tbaa !4
  %24 = ptrtoint ptr %23 to i64
  %25 = and i64 %24, 1
  %.not62 = icmp eq i64 %25, 0
  br i1 %.not62, label %26, label %lean_inc.exit40

26:                                               ; preds = %lean_inc.exit41
  %.val.i47 = load i32, ptr %23, align 4, !tbaa !8
  %27 = icmp sgt i32 %.val.i47, 0
  br i1 %27, label %28, label %30, !prof !11

28:                                               ; preds = %26
  %29 = add nuw i32 %.val.i47, 1
  store i32 %29, ptr %23, align 4, !tbaa !8
  br label %lean_inc.exit40

30:                                               ; preds = %26
  %.not.i48 = icmp eq i32 %.val.i47, 0
  br i1 %.not.i48, label %lean_inc.exit40, label %31

31:                                               ; preds = %30
  tail call void @lean_inc_ref_cold(ptr noundef nonnull %23) #6
  br label %lean_inc.exit40

lean_inc.exit40:                                  ; preds = %31, %30, %28, %lean_inc.exit41
  %32 = ptrtoint ptr %11 to i64
  %33 = and i64 %32, 1
  %.not63 = icmp eq i64 %33, 0
  br i1 %.not63, label %34, label %lean_dec.exit36

34:                                               ; preds = %lean_inc.exit40
  %35 = load i32, ptr %11, align 4, !tbaa !8
  %36 = icmp sgt i32 %35, 1
  br i1 %36, label %37, label %39, !prof !11

37:                                               ; preds = %34
  %38 = add nsw i32 %35, -1
  store i32 %38, ptr %11, align 4, !tbaa !8
  br label %lean_dec.exit36

39:                                               ; preds = %34
  %.not.i = icmp eq i32 %35, 0
  br i1 %.not.i, label %lean_dec.exit36, label %40

40:                                               ; preds = %39
  tail call void @lean_dec_ref_cold(ptr noundef nonnull %11) #6
  br label %lean_dec.exit36

lean_dec.exit36:                                  ; preds = %40, %39, %37, %lean_inc.exit40
  %41 = getelementptr inbounds nuw i8, ptr %13, i64 8
  %42 = load ptr, ptr %41, align 8, !tbaa !4
  %43 = ptrtoint ptr %42 to i64
  %44 = and i64 %43, 1
  %.not64 = icmp eq i64 %44, 0
  br i1 %.not64, label %45, label %lean_inc.exit39

45:                                               ; preds = %lean_dec.exit36
  %.val.i50 = load i32, ptr %42, align 4, !tbaa !8
  %46 = icmp sgt i32 %.val.i50, 0
  br i1 %46, label %47, label %49, !prof !11

47:                                               ; preds = %45
  %48 = add nuw i32 %.val.i50, 1
  store i32 %48, ptr %42, align 4, !tbaa !8
  br label %lean_inc.exit39

49:                                               ; preds = %45
  %.not.i51 = icmp eq i32 %.val.i50, 0
  br i1 %.not.i51, label %lean_inc.exit39, label %50

50:                                               ; preds = %49
  tail call void @lean_inc_ref_cold(ptr noundef nonnull %42) #6
  br label %lean_inc.exit39

lean_inc.exit39:                                  ; preds = %50, %49, %47, %lean_dec.exit36
  br i1 %.not, label %51, label %lean_dec.exit35

51:                                               ; preds = %lean_inc.exit39
  %52 = load i32, ptr %13, align 4, !tbaa !8
  %53 = icmp sgt i32 %52, 1
  br i1 %53, label %54, label %56, !prof !11

54:                                               ; preds = %51
  %55 = add nsw i32 %52, -1
  store i32 %55, ptr %13, align 4, !tbaa !8
  br label %lean_dec.exit35

56:                                               ; preds = %51
  %.not.i42 = icmp eq i32 %52, 0
  br i1 %.not.i42, label %lean_dec.exit35, label %57

57:                                               ; preds = %56
  tail call void @lean_dec_ref_cold(ptr noundef nonnull %13) #6
  br label %lean_dec.exit35

lean_dec.exit35:                                  ; preds = %57, %56, %54, %lean_inc.exit39
  %58 = tail call ptr @l___private_Lean_Meta_LazyDiscrTree_0__Lean_Meta_LazyDiscrTree_createTreeCtx(ptr noundef %0)
  %59 = ptrtoint ptr %7 to i64
  %60 = and i64 %59, 1
  %.not65 = icmp eq i64 %60, 0
  br i1 %.not65, label %61, label %lean_inc.exit38

61:                                               ; preds = %lean_dec.exit35
  %.val.i53 = load i32, ptr %7, align 4, !tbaa !8
  %62 = icmp sgt i32 %.val.i53, 0
  br i1 %62, label %63, label %65, !prof !11

63:                                               ; preds = %61
  %64 = add nuw i32 %.val.i53, 1
  store i32 %64, ptr %7, align 4, !tbaa !8
  br label %lean_inc.exit38

65:                                               ; preds = %61
  %.not.i54 = icmp eq i32 %.val.i53, 0
  br i1 %.not.i54, label %lean_inc.exit38, label %66

66:                                               ; preds = %65
  tail call void @lean_inc_ref_cold(ptr noundef nonnull %7) #6
  br label %lean_inc.exit38

lean_inc.exit38:                                  ; preds = %66, %65, %63, %lean_dec.exit35
  %67 = tail call ptr @l_Lean_Meta_LazyDiscrTree_createImportedDiscrTree___at_Lean_Meta_LazyDiscrTree_findImportMatches___spec__1___rarg(ptr noundef %58, ptr noundef %1, ptr noundef %42, ptr noundef %2, ptr noundef %3, ptr noundef %5, ptr noundef %6, ptr noundef %7, ptr noundef %8, ptr noundef %23)
  %68 = getelementptr inbounds nuw i8, ptr %67, i64 8
  %69 = load ptr, ptr %68, align 8, !tbaa !4
  %70 = ptrtoint ptr %69 to i64
  %71 = and i64 %70, 1
  %.not66 = icmp eq i64 %71, 0
  br i1 %.not66, label %72, label %lean_inc.exit37

72:                                               ; preds = %lean_inc.exit38
  %.val.i56 = load i32, ptr %69, align 4, !tbaa !8
  %73 = icmp sgt i32 %.val.i56, 0
  br i1 %73, label %74, label %76, !prof !11

74:                                               ; preds = %72
  %75 = add nuw i32 %.val.i56, 1
  store i32 %75, ptr %69, align 4, !tbaa !8
  br label %lean_inc.exit37

76:                                               ; preds = %72
  %.not.i57 = icmp eq i32 %.val.i56, 0
  br i1 %.not.i57, label %lean_inc.exit37, label %77

77:                                               ; preds = %76
  tail call void @lean_inc_ref_cold(ptr noundef nonnull %69) #6
  br label %lean_inc.exit37

lean_inc.exit37:                                  ; preds = %77, %76, %74, %lean_inc.exit38
  %78 = getelementptr inbounds nuw i8, ptr %67, i64 16
  %79 = load ptr, ptr %78, align 8, !tbaa !4
  %80 = ptrtoint ptr %79 to i64
  %81 = and i64 %80, 1
  %.not67 = icmp eq i64 %81, 0
  br i1 %.not67, label %82, label %lean_inc.exit

82:                                               ; preds = %lean_inc.exit37
  %.val.i59 = load i32, ptr %79, align 4, !tbaa !8
  %83 = icmp sgt i32 %.val.i59, 0
  br i1 %83, label %84, label %86, !prof !11

84:                                               ; preds = %82
  %85 = add nuw i32 %.val.i59, 1
  store i32 %85, ptr %79, align 4, !tbaa !8
  br label %lean_inc.exit

86:                                               ; preds = %82
  %.not.i60 = icmp eq i32 %.val.i59, 0
  br i1 %.not.i60, label %lean_inc.exit, label %87

87:                                               ; preds = %86
  tail call void @lean_inc_ref_cold(ptr noundef nonnull %79) #6
  br label %lean_inc.exit

lean_inc.exit:                                    ; preds = %87, %86, %84, %lean_inc.exit37
  %88 = ptrtoint ptr %67 to i64
  %89 = and i64 %88, 1
  %.not68 = icmp eq i64 %89, 0
  br i1 %.not68, label %90, label %lean_dec.exit

90:                                               ; preds = %lean_inc.exit
  %91 = load i32, ptr %67, align 4, !tbaa !8
  %92 = icmp sgt i32 %91, 1
  br i1 %92, label %93, label %95, !prof !11

93:                                               ; preds = %90
  %94 = add nsw i32 %91, -1
  store i32 %94, ptr %67, align 4, !tbaa !8
  br label %lean_dec.exit

95:                                               ; preds = %90
  %.not.i44 = icmp eq i32 %91, 0
  br i1 %.not.i44, label %lean_dec.exit, label %96

96:                                               ; preds = %95
  tail call void @lean_dec_ref_cold(ptr noundef nonnull %67) #6
  br label %lean_dec.exit

lean_dec.exit:                                    ; preds = %96, %95, %93, %lean_inc.exit
  %97 = tail call ptr @l_List_foldlM___at_Lean_Meta_LazyDiscrTree_dropKeys___spec__1___rarg(ptr noundef %69, ptr noundef %4, ptr noundef %5, ptr noundef %6, ptr noundef %7, ptr noundef %8, ptr noundef %79)
  ret ptr %97
}